; Function Attrs: mustprogress uwtable
define dso_local noundef nonnull align 8 dereferenceable(336) ptr @_ZN6spdlog7details8registry8instanceEv() local_unnamed_addr #6 align 2 personality ptr @__gxx_personality_v0 {
  %1 = load atomic i8, ptr @_ZGVZN6spdlog7details8registry8instanceEvE10s_instance acquire, align 8
  %2 = icmp eq i8 %1, 0
  br i1 %2, label %3, label %8, !prof !79

3:                                                ; preds = %0
  %4 = tail call i32 @__cxa_guard_acquire(ptr nonnull @_ZGVZN6spdlog7details8registry8instanceEvE10s_instance) #37
  %.not = icmp eq i32 %4, 0
  br i1 %.not, label %8, label %5

5:                                                ; preds = %3
  invoke void @_ZN6spdlog7details8registryC2Ev(ptr noundef nonnull align 8 dereferenceable(336) @_ZZN6spdlog7details8registry8instanceEvE10s_instance)
          to label %6 unwind label %9

6:                                                ; preds = %5
  %7 = tail call i32 @__cxa_atexit(ptr nonnull @_ZN6spdlog7details8registryD2Ev, ptr nonnull @_ZZN6spdlog7details8registry8instanceEvE10s_instance, ptr nonnull @__dso_handle) #37
  tail call void @__cxa_guard_release(ptr nonnull @_ZGVZN6spdlog7details8registry8instanceEvE10s_instance) #37
  br label %8

8:                                                ; preds = %6, %3, %0
  ret ptr @_ZZN6spdlog7details8registry8instanceEvE10s_instance

9:                                                ; preds = %5
  %10 = landingpad { ptr, i32 }
          cleanup
  tail call void @__cxa_guard_abort(ptr nonnull @_ZGVZN6spdlog7details8registry8instanceEvE10s_instance) #37
  resume { ptr, i32 } %10
}